target datalayout = "e-m:e-p270:32:32-p271:32:32-p272:64:64-i64:64-i128:128-f80:128-n8:16:32:64-S128"
target triple = "x86_64-pc-linux-gnu"

%struct._zval_struct = type { %union._zend_value, %union.anon, %union.anon.2 }
%union._zend_value = type { i64 }
%union.anon = type { i32 }
%union.anon.2 = type { i32 }
%struct._zend_op_array = type { i8, [3 x i8], i32, ptr, ptr, ptr, i32, i32, ptr, ptr, ptr, ptr, i32, i32, i32, i32, ptr, ptr, ptr, ptr, ptr, i32, i32, ptr, ptr, ptr, i32, i32, i32, i32, ptr, ptr, [6 x ptr] }
%struct._zend_jit_globals = type { i8, i8, i8, i8, i32, ptr, i64, i64, i64, double, i64, i64, i64, i64, i64, i64, i64, i64, i64, i64, i64, i64, i64, i64, ptr, i8, ptr, ptr, [64 x ptr], [64 x i8], [64 x i8], i32, ptr }
%struct._zend_execute_data = type { ptr, ptr, ptr, ptr, %struct._zval_struct, ptr, ptr, ptr, ptr }
%struct._zend_func_info = type { i32, i32, %struct._zend_ssa, ptr, ptr, ptr, %struct._zend_ssa_var_info }
%struct._zend_ssa = type { %struct._zend_cfg, i32, i32, ptr, ptr, ptr, ptr }
%struct._zend_cfg = type { i32, i32, ptr, ptr, ptr, i32 }
%struct._zend_ssa_var_info = type { i32, i8, %struct._zend_ssa_range, ptr }
%struct._zend_ssa_range = type { i64, i64, i8, i8 }
%struct._zend_jit_op_array_hot_extension = type { %struct._zend_func_info, ptr, [1 x ptr] }

@zend_func_info_rid = external global i32, align 4
@jit_globals = external global %struct._zend_jit_globals, align 8

; Function Attrs: nounwind uwtable
define hidden i32 @zend_jit_func_counter_helper(ptr noundef %0) #0 {
  %2 = alloca i32, align 4
  %3 = alloca ptr, align 8
  %4 = alloca ptr, align 8
  %5 = alloca ptr, align 8
  %6 = alloca ptr, align 8
  store ptr %0, ptr %3, align 8
  %7 = load ptr, ptr %3, align 8
  %8 = getelementptr inbounds %struct._zend_execute_data, ptr %7, i32 0, i32 3
  %9 = load ptr, ptr %8, align 8
  %10 = getelementptr inbounds %struct._zend_op_array, ptr %9, i32 0, i32 32
  %11 = load i32, ptr @zend_func_info_rid, align 4
  %12 = sext i32 %11 to i64
  %13 = getelementptr inbounds [6 x ptr], ptr %10, i64 0, i64 %12
  %14 = load ptr, ptr %13, align 8
  store ptr %14, ptr %4, align 8
  %15 = load ptr, ptr %3, align 8
  %16 = getelementptr inbounds %struct._zend_execute_data, ptr %15, i32 0, i32 0
  %17 = load ptr, ptr %16, align 8
  store ptr %17, ptr %5, align 8
  %18 = load i64, ptr getelementptr inbounds (%struct._zend_jit_globals, ptr @jit_globals, i32 0, i32 14), align 8
  %19 = add nsw i64 32531, %18
  %20 = sub nsw i64 %19, 1
  %21 = load i64, ptr getelementptr inbounds (%struct._zend_jit_globals, ptr @jit_globals, i32 0, i32 14), align 8
  %22 = sdiv i64 %20, %21
  %23 = load ptr, ptr %4, align 8
  %24 = getelementptr inbounds %struct._zend_jit_op_array_hot_extension, ptr %23, i32 0, i32 1
  %25 = load ptr, ptr %24, align 8
  %26 = load i16, ptr %25, align 2
  %27 = sext i16 %26 to i64
  %28 = sub nsw i64 %27, %22
  %29 = trunc i64 %28 to i16
  store i16 %29, ptr %25, align 2
  %30 = load ptr, ptr %4, align 8
  %31 = getelementptr inbounds %struct._zend_jit_op_array_hot_extension, ptr %30, i32 0, i32 1
  %32 = load ptr, ptr %31, align 8
  %33 = load i16, ptr %32, align 2
  %34 = sext i16 %33 to i32
  %35 = icmp sle i32 %34, 0
  %36 = xor i1 %35, true
  %37 = xor i1 %36, true
  %38 = zext i1 %37 to i32
  %39 = sext i32 %38 to i64
  %40 = icmp ne i64 %39, 0
  br i1 %40, label %41, label %47

41:                                               ; preds = %1
  %42 = load ptr, ptr %4, align 8
  %43 = getelementptr inbounds %struct._zend_jit_op_array_hot_extension, ptr %42, i32 0, i32 1
  %44 = load ptr, ptr %43, align 8
  store i16 32531, ptr %44, align 2
  %45 = load ptr, ptr %3, align 8
  %46 = load ptr, ptr %5, align 8
  call void @zend_jit_hot_func(ptr noundef %45, ptr noundef %46)
  store i32 0, ptr %2, align 4
  br label %67

47:                                               ; preds = %1
  %48 = load ptr, ptr %4, align 8
  %49 = getelementptr inbounds %struct._zend_jit_op_array_hot_extension, ptr %48, i32 0, i32 2
  %50 = load ptr, ptr %5, align 8
  %51 = load ptr, ptr %3, align 8
  %52 = getelementptr inbounds %struct._zend_execute_data, ptr %51, i32 0, i32 3
  %53 = load ptr, ptr %52, align 8
  %54 = getelementptr inbounds %struct._zend_op_array, ptr %53, i32 0, i32 16
  %55 = load ptr, ptr %54, align 8
  %56 = ptrtoint ptr %50 to i64
  %57 = ptrtoint ptr %55 to i64
  %58 = sub i64 %56, %57
  %59 = sdiv exact i64 %58, 32
  %60 = getelementptr inbounds [1 x ptr], ptr %49, i64 0, i64 %59
  %61 = load ptr, ptr %60, align 8
  store ptr %61, ptr %6, align 8
  br label %62

62:                                               ; preds = %47
  %63 = load ptr, ptr %6, align 8
  %64 = load ptr, ptr %3, align 8
  %65 = call i32 %63(ptr noundef %64)
  store i32 %65, ptr %2, align 4
  br label %67

66:                                               ; No predecessors!
  br label %67

67:                                               ; preds = %66, %62, %41
  %68 = load i32, ptr %2, align 4
  ret i32 %68
}