; Function Attrs: nounwind uwtable
define hidden i32 @zend_jit_func_counter_helper(ptr noundef %0) local_unnamed_addr #0 {
  %2 = getelementptr inbounds i8, ptr %0, i64 24
  %3 = load ptr, ptr %2, align 8
  %4 = getelementptr inbounds i8, ptr %3, i64 192
  %5 = load i32, ptr @zend_func_info_rid, align 4
  %6 = sext i32 %5 to i64
  %7 = getelementptr inbounds [6 x ptr], ptr %4, i64 0, i64 %6
  %8 = load ptr, ptr %7, align 8
  %9 = load ptr, ptr %0, align 8
  %10 = load i64, ptr getelementptr inbounds (%struct._zend_jit_globals, ptr @jit_globals, i64 0, i32 14), align 8
  %11 = add nsw i64 %10, 32530
  %12 = sdiv i64 %11, %10
  %13 = getelementptr inbounds i8, ptr %8, i64 152
  %14 = load ptr, ptr %13, align 8
  %15 = load i16, ptr %14, align 2
  %16 = trunc i64 %12 to i16
  %17 = sub i16 %15, %16
  store i16 %17, ptr %14, align 2
  %18 = load ptr, ptr %13, align 8
  %19 = load i16, ptr %18, align 2
  %20 = icmp slt i16 %19, 1
  br i1 %20, label %21, label %22

21:                                               ; preds = %1
  store i16 32531, ptr %18, align 2
  tail call void @zend_jit_hot_func(ptr noundef nonnull %0, ptr noundef %9) #6
  br label %34

22:                                               ; preds = %1
  %23 = getelementptr inbounds i8, ptr %8, i64 160
  %24 = load ptr, ptr %2, align 8
  %25 = getelementptr inbounds i8, ptr %24, i64 88
  %26 = load ptr, ptr %25, align 8
  %27 = ptrtoint ptr %9 to i64
  %28 = ptrtoint ptr %26 to i64
  %29 = sub i64 %27, %28
  %30 = ashr exact i64 %29, 5
  %31 = getelementptr inbounds [1 x ptr], ptr %23, i64 0, i64 %30
  %32 = load ptr, ptr %31, align 8
  %33 = tail call i32 %32(ptr noundef nonnull %0) #6
  br label %34

34:                                               ; preds = %22, %21
  %.0 = phi i32 [ 0, %21 ], [ %33, %22 ]
  ret i32 %.0
}